target datalayout = "e-m:e-p270:32:32-p271:32:32-p272:64:64-i64:64-i128:128-f80:128-n8:16:32:64-S128"
target triple = "x86_64-pc-linux-gnu"

%struct.ident_t = type { i32, i32, i32, i32, ptr }
%"class.ncnn::Quantize" = type { %"class.ncnn::Layer", i32, %"class.ncnn::Mat" }
%"class.ncnn::Layer" = type { ptr, i8, i8, i8, i8, i8, i8, i8, i8, i8, i8, i8, i8, i8, i8, i8, i8, i8, i8, i8, i8, i32, ptr, i32, %"class.std::__cxx11::basic_string", %"class.std::__cxx11::basic_string", %"class.std::vector", %"class.std::vector", %"class.std::vector.3", %"class.std::vector.3" }
%"class.std::__cxx11::basic_string" = type { %"struct.std::__cxx11::basic_string<char>::_Alloc_hider", i64, %union.anon }
%"struct.std::__cxx11::basic_string<char>::_Alloc_hider" = type { ptr }
%union.anon = type { i64, [8 x i8] }
%"class.std::vector" = type { %"struct.std::_Vector_base" }
%"struct.std::_Vector_base" = type { %"struct.std::_Vector_base<int, std::allocator<int>>::_Vector_impl" }
%"struct.std::_Vector_base<int, std::allocator<int>>::_Vector_impl" = type { %"struct.std::_Vector_base<int, std::allocator<int>>::_Vector_impl_data" }
%"struct.std::_Vector_base<int, std::allocator<int>>::_Vector_impl_data" = type { ptr, ptr, ptr }
%"class.std::vector.3" = type { %"struct.std::_Vector_base.4" }
%"struct.std::_Vector_base.4" = type { %"struct.std::_Vector_base<ncnn::Mat, std::allocator<ncnn::Mat>>::_Vector_impl" }
%"struct.std::_Vector_base<ncnn::Mat, std::allocator<ncnn::Mat>>::_Vector_impl" = type { %"struct.std::_Vector_base<ncnn::Mat, std::allocator<ncnn::Mat>>::_Vector_impl_data" }
%"struct.std::_Vector_base<ncnn::Mat, std::allocator<ncnn::Mat>>::_Vector_impl_data" = type { ptr, ptr, ptr }
%"class.ncnn::Mat" = type { ptr, ptr, i64, i32, ptr, i32, i32, i32, i32, i32, i64 }
%"class.ncnn::Option" = type { i8, i32, ptr, ptr, i32, i8, i8, i8, i8, i8, i8, i8, i8, i8, i8, i8, i8, i8, i8, i8, i8, i8, i8, i8, i8, i32, i8, i8, i8, i8, i8, i8, i8, i8, i8, i8, i8, i8 }

@2 = private unnamed_addr constant %struct.ident_t { i32 0, i32 2, i32 0, i32 22, ptr @0 }, align 8

; Function Attrs: mustprogress nounwind uwtable
define linkonce_odr noundef nofpclass(nan inf) float @_ZSt5roundf(float noundef nofpclass(nan inf) %0) #11 comdat {
  %2 = alloca float, align 4
  store float %0, ptr %2, align 4, !tbaa !49
  %3 = load float, ptr %2, align 4, !tbaa !49
  %4 = call fast float @llvm.round.f32(float %3)
  ret float %4
}

; Function Attrs: inlinehint mustprogress uwtable
define internal noundef signext i8 @_ZN4ncnnL10float2int8Ef(float noundef nofpclass(nan inf) %0) #10 {
  %2 = alloca i8, align 1
  %3 = alloca float, align 4
  %4 = alloca i32, align 4
  %5 = alloca i32, align 4
  store float %0, ptr %3, align 4, !tbaa !49
  call void @llvm.lifetime.start.p0(i64 4, ptr %4) #9
  %6 = load float, ptr %3, align 4, !tbaa !49
  %7 = call fast noundef nofpclass(nan inf) float @_ZSt5roundf(float noundef nofpclass(nan inf) %6)
  %8 = fptosi float %7 to i32
  store i32 %8, ptr %4, align 4, !tbaa !40
  %9 = load i32, ptr %4, align 4, !tbaa !40
  %10 = icmp sgt i32 %9, 127
  br i1 %10, label %11, label %12

11:                                               ; preds = %1
  store i8 127, ptr %2, align 1
  store i32 1, ptr %5, align 4
  br label %19

12:                                               ; preds = %1
  %13 = load i32, ptr %4, align 4, !tbaa !40
  %14 = icmp slt i32 %13, -127
  br i1 %14, label %15, label %16

15:                                               ; preds = %12
  store i8 -127, ptr %2, align 1
  store i32 1, ptr %5, align 4
  br label %19

16:                                               ; preds = %12
  %17 = load i32, ptr %4, align 4, !tbaa !40
  %18 = trunc i32 %17 to i8
  store i8 %18, ptr %2, align 1
  store i32 1, ptr %5, align 4
  br label %19

19:                                               ; preds = %16, %15, %11
  call void @llvm.lifetime.end.p0(i64 4, ptr %4) #9
  %20 = load i8, ptr %2, align 1
  ret i8 %20
}

; Function Attrs: alwaysinline mustprogress nounwind uwtable
define linkonce_odr hidden noundef i64 @_ZNK4ncnn3Mat5totalEv(ptr noundef nonnull align 8 dereferenceable(72) %0) #3 comdat align 2 {
  %2 = alloca ptr, align 8
  store ptr %0, ptr %2, align 8, !tbaa !36
  %3 = load ptr, ptr %2, align 8
  %4 = getelementptr inbounds nuw %"class.ncnn::Mat", ptr %3, i32 0, i32 10
  %5 = load i64, ptr %4, align 8, !tbaa !60
  %6 = getelementptr inbounds nuw %"class.ncnn::Mat", ptr %3, i32 0, i32 9
  %7 = load i32, ptr %6, align 8, !tbaa !43
  %8 = sext i32 %7 to i64
  %9 = mul i64 %5, %8
  ret i64 %9
}

; Function Attrs: mustprogress uwtable
define internal void @_ZN4ncnnL8quantizeEPKfPafi(ptr noundef %0, ptr noundef %1, float noundef nofpclass(nan inf) %2, i32 noundef %3) #1 {
  %5 = alloca ptr, align 8
  %6 = alloca ptr, align 8
  %7 = alloca float, align 4
  %8 = alloca i32, align 4
  %9 = alloca i32, align 4
  store ptr %0, ptr %5, align 8, !tbaa !46
  store ptr %1, ptr %6, align 8, !tbaa !48
  store float %2, ptr %7, align 4, !tbaa !49
  store i32 %3, ptr %8, align 4, !tbaa !40
  call void @llvm.lifetime.start.p0(i64 4, ptr %9) #9
  store i32 0, ptr %9, align 4, !tbaa !40
  br label %10

10:                                               ; preds = %26, %4
  %11 = load i32, ptr %9, align 4, !tbaa !40
  %12 = load i32, ptr %8, align 4, !tbaa !40
  %13 = icmp slt i32 %11, %12
  br i1 %13, label %15, label %14

14:                                               ; preds = %10
  call void @llvm.lifetime.end.p0(i64 4, ptr %9) #9
  br label %29

15:                                               ; preds = %10
  %16 = load ptr, ptr %5, align 8, !tbaa !46
  %17 = load float, ptr %16, align 4, !tbaa !49
  %18 = load float, ptr %7, align 4, !tbaa !49
  %19 = fmul fast float %17, %18
  %20 = call noundef signext i8 @_ZN4ncnnL10float2int8Ef(float noundef nofpclass(nan inf) %19)
  %21 = load ptr, ptr %6, align 8, !tbaa !48
  store i8 %20, ptr %21, align 1, !tbaa !63
  %22 = load ptr, ptr %5, align 8, !tbaa !46
  %23 = getelementptr inbounds nuw float, ptr %22, i32 1
  store ptr %23, ptr %5, align 8, !tbaa !46
  %24 = load ptr, ptr %6, align 8, !tbaa !48
  %25 = getelementptr inbounds nuw i8, ptr %24, i32 1
  store ptr %25, ptr %6, align 8, !tbaa !48
  br label %26

26:                                               ; preds = %15
  %27 = load i32, ptr %9, align 4, !tbaa !40
  %28 = add nsw i32 %27, 1
  store i32 %28, ptr %9, align 4, !tbaa !40
  br label %10, !llvm.loop !64

29:                                               ; preds = %14
  ret void
}

; Function Attrs: alwaysinline mustprogress nounwind uwtable
define linkonce_odr hidden noundef nonnull align 4 dereferenceable(4) ptr @_ZNK4ncnn3MatixEm(ptr noundef nonnull align 8 dereferenceable(72) %0, i64 noundef %1) #3 comdat align 2 {
  %3 = alloca ptr, align 8
  %4 = alloca i64, align 8
  store ptr %0, ptr %3, align 8, !tbaa !36
  store i64 %1, ptr %4, align 8, !tbaa !62
  %5 = load ptr, ptr %3, align 8
  %6 = getelementptr inbounds nuw %"class.ncnn::Mat", ptr %5, i32 0, i32 0
  %7 = load ptr, ptr %6, align 8, !tbaa !54
  %8 = load i64, ptr %4, align 8, !tbaa !62
  %9 = getelementptr inbounds nuw float, ptr %7, i64 %8
  ret ptr %9
}

; Function Attrs: alwaysinline mustprogress nounwind uwtable
define linkonce_odr hidden noundef ptr @_ZN4ncnn3MatcvPT_IaEEv(ptr noundef nonnull align 8 dereferenceable(72) %0) #3 comdat align 2 {
  %2 = alloca ptr, align 8
  store ptr %0, ptr %2, align 8, !tbaa !36
  %3 = load ptr, ptr %2, align 8
  %4 = getelementptr inbounds nuw %"class.ncnn::Mat", ptr %3, i32 0, i32 0
  %5 = load ptr, ptr %4, align 8, !tbaa !54
  ret ptr %5
}

; Function Attrs: alwaysinline mustprogress nounwind uwtable
define linkonce_odr hidden noundef ptr @_ZNK4ncnn3MatcvPKT_IfEEv(ptr noundef nonnull align 8 dereferenceable(72) %0) #3 comdat align 2 {
  %2 = alloca ptr, align 8
  store ptr %0, ptr %2, align 8, !tbaa !36
  %3 = load ptr, ptr %2, align 8
  %4 = getelementptr inbounds nuw %"class.ncnn::Mat", ptr %3, i32 0, i32 0
  %5 = load ptr, ptr %4, align 8, !tbaa !54
  ret ptr %5
}

; Function Attrs: alwaysinline mustprogress uwtable
define linkonce_odr hidden noundef zeroext i1 @_ZNK4ncnn3Mat5emptyEv(ptr noundef nonnull align 8 dereferenceable(72) %0) #6 comdat align 2 {
  %2 = alloca ptr, align 8
  store ptr %0, ptr %2, align 8, !tbaa !36
  %3 = load ptr, ptr %2, align 8
  %4 = getelementptr inbounds nuw %"class.ncnn::Mat", ptr %3, i32 0, i32 0
  %5 = load ptr, ptr %4, align 8, !tbaa !54
  %6 = icmp eq ptr %5, null
  br i1 %6, label %10, label %7

7:                                                ; preds = %1
  %8 = call noundef i64 @_ZNK4ncnn3Mat5totalEv(ptr noundef nonnull align 8 dereferenceable(72) %3)
  %9 = icmp eq i64 %8, 0
  br label %10

10:                                               ; preds = %7, %1
  %11 = phi i1 [ true, %1 ], [ %9, %7 ]
  ret i1 %11
}

; Function Attrs: mustprogress uwtable
define hidden noundef i32 @_ZNK4ncnn8Quantize7forwardERKNS_3MatERS1_RKNS_6OptionE(ptr noundef nonnull align 8 dereferenceable(288) %0, ptr noundef nonnull align 8 dereferenceable(72) %1, ptr noundef nonnull align 8 dereferenceable(72) %2, ptr noundef nonnull align 8 dereferenceable(64) %3) unnamed_addr #1 align 2 {
  %5 = alloca i32, align 4
  %6 = alloca ptr, align 8
  %7 = alloca ptr, align 8
  %8 = alloca ptr, align 8
  %9 = alloca ptr, align 8
  %10 = alloca i32, align 4
  %11 = alloca i32, align 4
  %12 = alloca i32, align 4
  %13 = alloca i32, align 4
  %14 = alloca i32, align 4
  %15 = alloca ptr, align 8
  %16 = alloca ptr, align 8
  %17 = alloca float, align 4
  %18 = call i32 @__kmpc_global_thread_num(ptr @2)
  store ptr %0, ptr %6, align 8, !tbaa !4
  store ptr %1, ptr %7, align 8, !tbaa !36
  store ptr %2, ptr %8, align 8, !tbaa !36
  store ptr %3, ptr %9, align 8, !tbaa !37
  %19 = load ptr, ptr %6, align 8
  call void @llvm.lifetime.start.p0(i64 4, ptr %10) #9
  %20 = load ptr, ptr %7, align 8, !tbaa !36
  %21 = getelementptr inbounds nuw %"class.ncnn::Mat", ptr %20, i32 0, i32 5
  %22 = load i32, ptr %21, align 8, !tbaa !39
  store i32 %22, ptr %10, align 4, !tbaa !40
  call void @llvm.lifetime.start.p0(i64 4, ptr %11) #9
  %23 = load ptr, ptr %7, align 8, !tbaa !36
  %24 = getelementptr inbounds nuw %"class.ncnn::Mat", ptr %23, i32 0, i32 6
  %25 = load i32, ptr %24, align 4, !tbaa !41
  store i32 %25, ptr %11, align 4, !tbaa !40
  call void @llvm.lifetime.start.p0(i64 4, ptr %12) #9
  %26 = load ptr, ptr %7, align 8, !tbaa !36
  %27 = getelementptr inbounds nuw %"class.ncnn::Mat", ptr %26, i32 0, i32 7
  %28 = load i32, ptr %27, align 8, !tbaa !42
  store i32 %28, ptr %12, align 4, !tbaa !40
  call void @llvm.lifetime.start.p0(i64 4, ptr %13) #9
  %29 = load ptr, ptr %7, align 8, !tbaa !36
  %30 = getelementptr inbounds nuw %"class.ncnn::Mat", ptr %29, i32 0, i32 9
  %31 = load i32, ptr %30, align 8, !tbaa !43
  store i32 %31, ptr %13, align 4, !tbaa !40
  %32 = load i32, ptr %10, align 4, !tbaa !40
  %33 = icmp eq i32 %32, 1
  br i1 %33, label %34, label %55

34:                                               ; preds = %4
  %35 = load ptr, ptr %8, align 8, !tbaa !36
  %36 = load i32, ptr %11, align 4, !tbaa !40
  %37 = load ptr, ptr %9, align 8, !tbaa !37
  %38 = getelementptr inbounds nuw %"class.ncnn::Option", ptr %37, i32 0, i32 2
  %39 = load ptr, ptr %38, align 8, !tbaa !44
  call void @_ZN4ncnn3Mat6createEimPNS_9AllocatorE(ptr noundef nonnull align 8 dereferenceable(72) %35, i32 noundef %36, i64 noundef 1, ptr noundef %39)
  %40 = load ptr, ptr %8, align 8, !tbaa !36
  %41 = call noundef zeroext i1 @_ZNK4ncnn3Mat5emptyEv(ptr noundef nonnull align 8 dereferenceable(72) %40)
  br i1 %41, label %42, label %43

42:                                               ; preds = %34
  store i32 -100, ptr %5, align 4
  store i32 1, ptr %14, align 4
  br label %95

43:                                               ; preds = %34
  call void @llvm.lifetime.start.p0(i64 8, ptr %15) #9
  %44 = load ptr, ptr %7, align 8, !tbaa !36
  %45 = call noundef ptr @_ZNK4ncnn3MatcvPKT_IfEEv(ptr noundef nonnull align 8 dereferenceable(72) %44)
  store ptr %45, ptr %15, align 8, !tbaa !46
  call void @llvm.lifetime.start.p0(i64 8, ptr %16) #9
  %46 = load ptr, ptr %8, align 8, !tbaa !36
  %47 = call noundef ptr @_ZN4ncnn3MatcvPT_IaEEv(ptr noundef nonnull align 8 dereferenceable(72) %46)
  store ptr %47, ptr %16, align 8, !tbaa !48
  call void @llvm.lifetime.start.p0(i64 4, ptr %17) #9
  %48 = getelementptr inbounds nuw %"class.ncnn::Quantize", ptr %19, i32 0, i32 2
  %49 = call noundef nonnull align 4 dereferenceable(4) ptr @_ZNK4ncnn3MatixEm(ptr noundef nonnull align 8 dereferenceable(72) %48, i64 noundef 0)
  %50 = load float, ptr %49, align 4, !tbaa !49
  store float %50, ptr %17, align 4, !tbaa !49
  %51 = load ptr, ptr %15, align 8, !tbaa !46
  %52 = load ptr, ptr %16, align 8, !tbaa !48
  %53 = load float, ptr %17, align 4, !tbaa !49
  %54 = load i32, ptr %11, align 4, !tbaa !40
  call void @_ZN4ncnnL8quantizeEPKfPafi(ptr noundef %51, ptr noundef %52, float noundef nofpclass(nan inf) %53, i32 noundef %54)
  call void @llvm.lifetime.end.p0(i64 4, ptr %17) #9
  call void @llvm.lifetime.end.p0(i64 8, ptr %16) #9
  call void @llvm.lifetime.end.p0(i64 8, ptr %15) #9
  br label %55

55:                                               ; preds = %43, %4
  %56 = load i32, ptr %10, align 4, !tbaa !40
  %57 = icmp eq i32 %56, 2
  br i1 %57, label %58, label %74

58:                                               ; preds = %55
  %59 = load ptr, ptr %8, align 8, !tbaa !36
  %60 = load i32, ptr %11, align 4, !tbaa !40
  %61 = load i32, ptr %12, align 4, !tbaa !40
  %62 = load ptr, ptr %9, align 8, !tbaa !37
  %63 = getelementptr inbounds nuw %"class.ncnn::Option", ptr %62, i32 0, i32 2
  %64 = load ptr, ptr %63, align 8, !tbaa !44
  call void @_ZN4ncnn3Mat6createEiimPNS_9AllocatorE(ptr noundef nonnull align 8 dereferenceable(72) %59, i32 noundef %60, i32 noundef %61, i64 noundef 1, ptr noundef %64)
  %65 = load ptr, ptr %8, align 8, !tbaa !36
  %66 = call noundef zeroext i1 @_ZNK4ncnn3Mat5emptyEv(ptr noundef nonnull align 8 dereferenceable(72) %65)
  br i1 %66, label %67, label %68

67:                                               ; preds = %58
  store i32 -100, ptr %5, align 4
  store i32 1, ptr %14, align 4
  br label %95

68:                                               ; preds = %58
  %69 = load ptr, ptr %9, align 8, !tbaa !37
  %70 = getelementptr inbounds nuw %"class.ncnn::Option", ptr %69, i32 0, i32 1
  %71 = load i32, ptr %70, align 4, !tbaa !51
  call void @__kmpc_push_num_threads(ptr @2, i32 %18, i32 %71)
  %72 = load ptr, ptr %7, align 8, !tbaa !36
  %73 = load ptr, ptr %8, align 8, !tbaa !36
  call void (ptr, i32, ptr, ...) @__kmpc_fork_call(ptr @2, i32 5, ptr @_ZNK4ncnn8Quantize7forwardERKNS_3MatERS1_RKNS_6OptionE.omp_outlined, ptr %12, ptr %72, ptr %73, ptr %19, ptr %11)
  br label %74

74:                                               ; preds = %68, %55
  %75 = load i32, ptr %10, align 4, !tbaa !40
  %76 = icmp eq i32 %75, 3
  br i1 %76, label %77, label %94

77:                                               ; preds = %74
  %78 = load ptr, ptr %8, align 8, !tbaa !36
  %79 = load i32, ptr %11, align 4, !tbaa !40
  %80 = load i32, ptr %12, align 4, !tbaa !40
  %81 = load i32, ptr %13, align 4, !tbaa !40
  %82 = load ptr, ptr %9, align 8, !tbaa !37
  %83 = getelementptr inbounds nuw %"class.ncnn::Option", ptr %82, i32 0, i32 2
  %84 = load ptr, ptr %83, align 8, !tbaa !44
  call void @_ZN4ncnn3Mat6createEiiimPNS_9AllocatorE(ptr noundef nonnull align 8 dereferenceable(72) %78, i32 noundef %79, i32 noundef %80, i32 noundef %81, i64 noundef 1, ptr noundef %84)
  %85 = load ptr, ptr %8, align 8, !tbaa !36
  %86 = call noundef zeroext i1 @_ZNK4ncnn3Mat5emptyEv(ptr noundef nonnull align 8 dereferenceable(72) %85)
  br i1 %86, label %87, label %88

87:                                               ; preds = %77
  store i32 -100, ptr %5, align 4
  store i32 1, ptr %14, align 4
  br label %95

88:                                               ; preds = %77
  %89 = load ptr, ptr %9, align 8, !tbaa !37
  %90 = getelementptr inbounds nuw %"class.ncnn::Option", ptr %89, i32 0, i32 1
  %91 = load i32, ptr %90, align 4, !tbaa !51
  call void @__kmpc_push_num_threads(ptr @2, i32 %18, i32 %91)
  %92 = load ptr, ptr %7, align 8, !tbaa !36
  %93 = load ptr, ptr %8, align 8, !tbaa !36
  call void (ptr, i32, ptr, ...) @__kmpc_fork_call(ptr @2, i32 6, ptr @_ZNK4ncnn8Quantize7forwardERKNS_3MatERS1_RKNS_6OptionE.omp_outlined.1, ptr %13, ptr %92, ptr %93, ptr %19, ptr %11, ptr %12)
  br label %94

94:                                               ; preds = %88, %74
  store i32 0, ptr %5, align 4
  store i32 1, ptr %14, align 4
  br label %95

95:                                               ; preds = %94, %87, %67, %42
  call void @llvm.lifetime.end.p0(i64 4, ptr %13) #9
  call void @llvm.lifetime.end.p0(i64 4, ptr %12) #9
  call void @llvm.lifetime.end.p0(i64 4, ptr %11) #9
  call void @llvm.lifetime.end.p0(i64 4, ptr %10) #9
  %96 = load i32, ptr %5, align 4
  ret i32 %96
}