; Function Attrs: mustprogress uwtable
define hidden noundef range(i32 -100, 1) i32 @_ZNK4ncnn8Quantize7forwardERKNS_3MatERS1_RKNS_6OptionE(ptr noundef nonnull align 8 dereferenceable(288) %0, ptr noundef nonnull align 8 dereferenceable(72) %1, ptr noundef nonnull align 8 dereferenceable(72) %2, ptr noundef nonnull readonly align 8 captures(none) dereferenceable(64) %3) unnamed_addr #1 align 2 {
  %5 = alloca i32, align 4
  %6 = alloca i32, align 4
  %7 = alloca i32, align 4
  %8 = tail call i32 @__kmpc_global_thread_num(ptr nonnull @2)
  %9 = getelementptr inbounds nuw i8, ptr %1, i64 40
  %10 = load i32, ptr %9, align 8, !tbaa !36
  call void @llvm.lifetime.start.p0(i64 4, ptr nonnull %5) #9
  %11 = getelementptr inbounds nuw i8, ptr %1, i64 44
  %12 = load i32, ptr %11, align 4, !tbaa !37
  store i32 %12, ptr %5, align 4, !tbaa !41
  call void @llvm.lifetime.start.p0(i64 4, ptr nonnull %6) #9
  %13 = getelementptr inbounds nuw i8, ptr %1, i64 48
  %14 = load i32, ptr %13, align 8, !tbaa !38
  store i32 %14, ptr %6, align 4, !tbaa !41
  call void @llvm.lifetime.start.p0(i64 4, ptr nonnull %7) #9
  %15 = getelementptr inbounds nuw i8, ptr %1, i64 56
  %16 = load i32, ptr %15, align 8, !tbaa !40
  store i32 %16, ptr %7, align 4, !tbaa !41
  switch i32 %10, label %_ZN4ncnnL8quantizeEPKfPafi.exit [
    i32 1, label %17
    i32 2, label %42
    i32 3, label %57
  ]

17:                                               ; preds = %4
  %18 = getelementptr inbounds nuw i8, ptr %3, i64 8
  %19 = load ptr, ptr %18, align 8, !tbaa !42
  tail call void @_ZN4ncnn3Mat6createEimPNS_9AllocatorE(ptr noundef nonnull align 8 dereferenceable(72) %2, i32 noundef %12, i64 noundef 1, ptr noundef %19)
  %20 = load ptr, ptr %2, align 8, !tbaa !16
  %21 = icmp eq ptr %20, null
  br i1 %21, label %_ZN4ncnnL8quantizeEPKfPafi.exit, label %_ZNK4ncnn3Mat5emptyEv.exit

_ZNK4ncnn3Mat5emptyEv.exit:                       ; preds = %17
  %22 = getelementptr inbounds nuw i8, ptr %2, i64 64
  %23 = load i64, ptr %22, align 8, !tbaa !17
  %24 = getelementptr inbounds nuw i8, ptr %2, i64 56
  %25 = load i32, ptr %24, align 8, !tbaa !40
  %26 = sext i32 %25 to i64
  %27 = mul i64 %23, %26
  %28 = icmp eq i64 %27, 0
  br i1 %28, label %_ZN4ncnnL8quantizeEPKfPafi.exit, label %29

29:                                               ; preds = %_ZNK4ncnn3Mat5emptyEv.exit
  %30 = getelementptr inbounds nuw i8, ptr %0, i64 216
  %31 = load ptr, ptr %30, align 8, !tbaa !16
  %32 = load float, ptr %31, align 4, !tbaa !44
  %33 = icmp sgt i32 %12, 0
  br i1 %33, label %.lr.ph.i.preheader, label %_ZN4ncnnL8quantizeEPKfPafi.exit

.lr.ph.i.preheader:                               ; preds = %29
  %34 = load ptr, ptr %1, align 8, !tbaa !16
  br label %.lr.ph.i

.lr.ph.i:                                         ; preds = %.lr.ph.i.preheader, %.lr.ph.i
  %.011.i = phi i32 [ %41, %.lr.ph.i ], [ 0, %.lr.ph.i.preheader ]
  %.0710.i = phi ptr [ %39, %.lr.ph.i ], [ %34, %.lr.ph.i.preheader ]
  %.089.i = phi ptr [ %40, %.lr.ph.i ], [ %20, %.lr.ph.i.preheader ]
  %35 = load float, ptr %.0710.i, align 4, !tbaa !44
  %36 = fmul fast float %35, %32
  %37 = tail call fast noundef float @llvm.round.f32(float %36)
  %38 = fptosi float %37 to i32
  %spec.select5.i.i = tail call i32 @llvm.smax.i32(i32 %38, i32 -127)
  %.06.i.i = tail call i32 @llvm.smin.i32(i32 %spec.select5.i.i, i32 127)
  %.0.i.i = trunc nsw i32 %.06.i.i to i8
  store i8 %.0.i.i, ptr %.089.i, align 1, !tbaa !46
  %39 = getelementptr inbounds nuw i8, ptr %.0710.i, i64 4
  %40 = getelementptr inbounds nuw i8, ptr %.089.i, i64 1
  %41 = add nuw nsw i32 %.011.i, 1
  %exitcond.not.i = icmp eq i32 %41, %12
  br i1 %exitcond.not.i, label %_ZN4ncnnL8quantizeEPKfPafi.exit, label %.lr.ph.i, !llvm.loop !47

42:                                               ; preds = %4
  %43 = getelementptr inbounds nuw i8, ptr %3, i64 8
  %44 = load ptr, ptr %43, align 8, !tbaa !42
  tail call void @_ZN4ncnn3Mat6createEiimPNS_9AllocatorE(ptr noundef nonnull align 8 dereferenceable(72) %2, i32 noundef %12, i32 noundef %14, i64 noundef 1, ptr noundef %44)
  %45 = load ptr, ptr %2, align 8, !tbaa !16
  %46 = icmp eq ptr %45, null
  br i1 %46, label %_ZN4ncnnL8quantizeEPKfPafi.exit, label %_ZNK4ncnn3Mat5emptyEv.exit28

_ZNK4ncnn3Mat5emptyEv.exit28:                     ; preds = %42
  %47 = getelementptr inbounds nuw i8, ptr %2, i64 64
  %48 = load i64, ptr %47, align 8, !tbaa !17
  %49 = getelementptr inbounds nuw i8, ptr %2, i64 56
  %50 = load i32, ptr %49, align 8, !tbaa !40
  %51 = sext i32 %50 to i64
  %52 = mul i64 %48, %51
  %53 = icmp eq i64 %52, 0
  br i1 %53, label %_ZN4ncnnL8quantizeEPKfPafi.exit, label %54

54:                                               ; preds = %_ZNK4ncnn3Mat5emptyEv.exit28
  %55 = getelementptr inbounds nuw i8, ptr %3, i64 4
  %56 = load i32, ptr %55, align 4, !tbaa !49
  tail call void @__kmpc_push_num_threads(ptr nonnull @2, i32 %8, i32 %56)
  call void (ptr, i32, ptr, ...) @__kmpc_fork_call(ptr nonnull @2, i32 5, ptr nonnull @_ZNK4ncnn8Quantize7forwardERKNS_3MatERS1_RKNS_6OptionE.omp_outlined, ptr nonnull %6, ptr nonnull %1, ptr nonnull %2, ptr nonnull %0, ptr nonnull %5)
  br label %_ZN4ncnnL8quantizeEPKfPafi.exit

57:                                               ; preds = %4
  %58 = getelementptr inbounds nuw i8, ptr %3, i64 8
  %59 = load ptr, ptr %58, align 8, !tbaa !42
  tail call void @_ZN4ncnn3Mat6createEiiimPNS_9AllocatorE(ptr noundef nonnull align 8 dereferenceable(72) %2, i32 noundef %12, i32 noundef %14, i32 noundef %16, i64 noundef 1, ptr noundef %59)
  %60 = load ptr, ptr %2, align 8, !tbaa !16
  %61 = icmp eq ptr %60, null
  br i1 %61, label %_ZN4ncnnL8quantizeEPKfPafi.exit, label %_ZNK4ncnn3Mat5emptyEv.exit29

_ZNK4ncnn3Mat5emptyEv.exit29:                     ; preds = %57
  %62 = getelementptr inbounds nuw i8, ptr %2, i64 64
  %63 = load i64, ptr %62, align 8, !tbaa !17
  %64 = getelementptr inbounds nuw i8, ptr %2, i64 56
  %65 = load i32, ptr %64, align 8, !tbaa !40
  %66 = sext i32 %65 to i64
  %67 = mul i64 %63, %66
  %68 = icmp eq i64 %67, 0
  br i1 %68, label %_ZN4ncnnL8quantizeEPKfPafi.exit, label %69

69:                                               ; preds = %_ZNK4ncnn3Mat5emptyEv.exit29
  %70 = getelementptr inbounds nuw i8, ptr %3, i64 4
  %71 = load i32, ptr %70, align 4, !tbaa !49
  tail call void @__kmpc_push_num_threads(ptr nonnull @2, i32 %8, i32 %71)
  call void (ptr, i32, ptr, ...) @__kmpc_fork_call(ptr nonnull @2, i32 6, ptr nonnull @_ZNK4ncnn8Quantize7forwardERKNS_3MatERS1_RKNS_6OptionE.omp_outlined.1, ptr nonnull %7, ptr nonnull %1, ptr nonnull %2, ptr nonnull %0, ptr nonnull %5, ptr nonnull %6)
  br label %_ZN4ncnnL8quantizeEPKfPafi.exit

_ZN4ncnnL8quantizeEPKfPafi.exit:                  ; preds = %.lr.ph.i, %57, %42, %17, %54, %29, %69, %4, %_ZNK4ncnn3Mat5emptyEv.exit29, %_ZNK4ncnn3Mat5emptyEv.exit28, %_ZNK4ncnn3Mat5emptyEv.exit
  %.0 = phi i32 [ -100, %_ZNK4ncnn3Mat5emptyEv.exit ], [ -100, %_ZNK4ncnn3Mat5emptyEv.exit28 ], [ -100, %_ZNK4ncnn3Mat5emptyEv.exit29 ], [ 0, %4 ], [ 0, %69 ], [ 0, %54 ], [ 0, %29 ], [ -100, %17 ], [ -100, %42 ], [ -100, %57 ], [ 0, %.lr.ph.i ]
  call void @llvm.lifetime.end.p0(i64 4, ptr nonnull %7) #9
  call void @llvm.lifetime.end.p0(i64 4, ptr nonnull %6) #9
  call void @llvm.lifetime.end.p0(i64 4, ptr nonnull %5) #9
  ret i32 %.0
}